target datalayout = "e-m:e-p270:32:32-p271:32:32-p272:64:64-i64:64-i128:128-f80:128-n8:16:32:64-S128"
target triple = "x86_64-pc-linux-gnu"

%struct.CPState = type { i32, i32, %struct.CPValue, ptr, ptr, ptr, %struct.SBuf, ptr, ptr, ptr, ptr, i32, i32, i32, i32, [7 x i8], i8 }
%struct.CPValue = type { %union.anon, i32 }
%union.anon = type { i32 }
%struct.SBuf = type { ptr, ptr, ptr, %struct.MRef }
%struct.MRef = type { i64 }
%struct.__va_list_tag = type { i32, i32, ptr, ptr }

@lj_char_bits = external hidden constant [257 x i8], align 16
@lj_err_allmsg = external hidden global ptr, align 8
@.str = private unnamed_addr constant [14 x i8] c"%s at line %d\00", align 1
@ctoknames = internal constant [14 x ptr] [ptr @.str.3, ptr @.str.4, ptr @.str.5, ptr @.str.6, ptr @.str.7, ptr @.str.8, ptr @.str.9, ptr @.str.10, ptr @.str.11, ptr @.str.12, ptr @.str.13, ptr @.str.14, ptr @.str.15, ptr null], align 16
@.str.1 = private unnamed_addr constant [3 x i8] c"%c\00", align 1
@.str.2 = private unnamed_addr constant [9 x i8] c"char(%d)\00", align 1

; Function Attrs: alwaysinline nounwind uwtable
define internal ptr @lj_buf_more(ptr noundef %0, i32 noundef %1) #6 {
  %3 = alloca ptr, align 8
  %4 = alloca ptr, align 8
  %5 = alloca i32, align 4
  store ptr %0, ptr %4, align 8, !tbaa !69
  store i32 %1, ptr %5, align 4, !tbaa !11
  %6 = load i32, ptr %5, align 4, !tbaa !11
  %7 = load ptr, ptr %4, align 8, !tbaa !69
  %8 = getelementptr inbounds nuw %struct.SBuf, ptr %7, i32 0, i32 1
  %9 = load ptr, ptr %8, align 8, !tbaa !73
  %10 = load ptr, ptr %4, align 8, !tbaa !69
  %11 = getelementptr inbounds nuw %struct.SBuf, ptr %10, i32 0, i32 0
  %12 = load ptr, ptr %11, align 8, !tbaa !74
  %13 = ptrtoint ptr %9 to i64
  %14 = ptrtoint ptr %12 to i64
  %15 = sub i64 %13, %14
  %16 = trunc i64 %15 to i32
  %17 = icmp ugt i32 %6, %16
  %18 = xor i1 %17, true
  %19 = xor i1 %18, true
  %20 = zext i1 %19 to i32
  %21 = sext i32 %20 to i64
  %22 = call i64 @llvm.expect.i64(i64 %21, i64 0)
  %23 = icmp ne i64 %22, 0
  br i1 %23, label %24, label %28

24:                                               ; preds = %2
  %25 = load ptr, ptr %4, align 8, !tbaa !69
  %26 = load i32, ptr %5, align 4, !tbaa !11
  %27 = call ptr @lj_buf_more2(ptr noundef %25, i32 noundef %26)
  store ptr %27, ptr %3, align 8
  br label %32

28:                                               ; preds = %2
  %29 = load ptr, ptr %4, align 8, !tbaa !69
  %30 = getelementptr inbounds nuw %struct.SBuf, ptr %29, i32 0, i32 0
  %31 = load ptr, ptr %30, align 8, !tbaa !74
  store ptr %31, ptr %3, align 8
  br label %32

32:                                               ; preds = %28, %24
  %33 = load ptr, ptr %3, align 8
  ret ptr %33
}

; Function Attrs: alwaysinline nounwind uwtable
define internal void @lj_buf_putb(ptr noundef %0, i32 noundef %1) #6 {
  %3 = alloca ptr, align 8
  %4 = alloca i32, align 4
  %5 = alloca ptr, align 8
  store ptr %0, ptr %3, align 8, !tbaa !69
  store i32 %1, ptr %4, align 4, !tbaa !11
  call void @llvm.lifetime.start.p0(i64 8, ptr %5) #13
  %6 = load ptr, ptr %3, align 8, !tbaa !69
  %7 = call ptr @lj_buf_more(ptr noundef %6, i32 noundef 1)
  store ptr %7, ptr %5, align 8, !tbaa !9
  %8 = load i32, ptr %4, align 4, !tbaa !11
  %9 = trunc i32 %8 to i8
  %10 = load ptr, ptr %5, align 8, !tbaa !9
  %11 = getelementptr inbounds nuw i8, ptr %10, i32 1
  store ptr %11, ptr %5, align 8, !tbaa !9
  store i8 %9, ptr %10, align 1, !tbaa !13
  %12 = load ptr, ptr %5, align 8, !tbaa !9
  %13 = load ptr, ptr %3, align 8, !tbaa !69
  %14 = getelementptr inbounds nuw %struct.SBuf, ptr %13, i32 0, i32 0
  store ptr %12, ptr %14, align 8, !tbaa !74
  call void @llvm.lifetime.end.p0(i64 8, ptr %5) #13
  ret void
}

; Function Attrs: nounwind uwtable
define internal ptr @cp_tok2str(ptr noundef %0, i32 noundef %1) #0 {
  %3 = alloca ptr, align 8
  %4 = alloca ptr, align 8
  %5 = alloca i32, align 4
  store ptr %0, ptr %4, align 8, !tbaa !20
  store i32 %1, ptr %5, align 4, !tbaa !11
  %6 = load i32, ptr %5, align 4, !tbaa !11
  %7 = icmp sgt i32 %6, 255
  br i1 %7, label %8, label %15

8:                                                ; preds = %2
  %9 = load i32, ptr %5, align 4, !tbaa !11
  %10 = sub nsw i32 %9, 255
  %11 = sub nsw i32 %10, 1
  %12 = sext i32 %11 to i64
  %13 = getelementptr inbounds [14 x ptr], ptr @ctoknames, i64 0, i64 %12
  %14 = load ptr, ptr %13, align 8, !tbaa !9
  store ptr %14, ptr %3, align 8
  br label %35

15:                                               ; preds = %2
  %16 = load i32, ptr %5, align 4, !tbaa !11
  %17 = sext i32 %16 to i64
  %18 = getelementptr inbounds i8, ptr getelementptr inbounds (i8, ptr @lj_char_bits, i64 1), i64 %17
  %19 = load i8, ptr %18, align 1, !tbaa !13
  %20 = zext i8 %19 to i32
  %21 = and i32 %20, 1
  %22 = icmp ne i32 %21, 0
  br i1 %22, label %29, label %23

23:                                               ; preds = %15
  %24 = load ptr, ptr %4, align 8, !tbaa !20
  %25 = getelementptr inbounds nuw %struct.CPState, ptr %24, i32 0, i32 7
  %26 = load ptr, ptr %25, align 8, !tbaa !43
  %27 = load i32, ptr %5, align 4, !tbaa !11
  %28 = call ptr (ptr, ptr, ...) @lj_strfmt_pushf(ptr noundef %26, ptr noundef @.str.1, i32 noundef %27)
  store ptr %28, ptr %3, align 8
  br label %35

29:                                               ; preds = %15
  %30 = load ptr, ptr %4, align 8, !tbaa !20
  %31 = getelementptr inbounds nuw %struct.CPState, ptr %30, i32 0, i32 7
  %32 = load ptr, ptr %31, align 8, !tbaa !43
  %33 = load i32, ptr %5, align 4, !tbaa !11
  %34 = call ptr (ptr, ptr, ...) @lj_strfmt_pushf(ptr noundef %32, ptr noundef @.str.2, i32 noundef %33)
  store ptr %34, ptr %3, align 8
  br label %35

35:                                               ; preds = %29, %23, %8
  %36 = load ptr, ptr %3, align 8
  ret ptr %36
}

; Function Attrs: alwaysinline nounwind uwtable
define internal void @cp_save(ptr noundef %0, i32 noundef %1) #6 {
  %3 = alloca ptr, align 8
  %4 = alloca i32, align 4
  store ptr %0, ptr %3, align 8, !tbaa !20
  store i32 %1, ptr %4, align 4, !tbaa !11
  %5 = load ptr, ptr %3, align 8, !tbaa !20
  %6 = getelementptr inbounds nuw %struct.CPState, ptr %5, i32 0, i32 6
  %7 = load i32, ptr %4, align 4, !tbaa !11
  call void @lj_buf_putb(ptr noundef %6, i32 noundef %7)
  ret void
}

; Function Attrs: noreturn nounwind uwtable
define internal void @cp_errmsg(ptr noundef %0, i32 noundef %1, i32 noundef %2, ...) #9 {
  %4 = alloca ptr, align 8
  %5 = alloca i32, align 4
  %6 = alloca i32, align 4
  %7 = alloca ptr, align 8
  %8 = alloca ptr, align 8
  %9 = alloca ptr, align 8
  %10 = alloca [1 x %struct.__va_list_tag], align 16
  store ptr %0, ptr %4, align 8, !tbaa !20
  store i32 %1, ptr %5, align 4, !tbaa !11
  store i32 %2, ptr %6, align 4, !tbaa !11
  call void @llvm.lifetime.start.p0(i64 8, ptr %7) #13
  call void @llvm.lifetime.start.p0(i64 8, ptr %8) #13
  call void @llvm.lifetime.start.p0(i64 8, ptr %9) #13
  call void @llvm.lifetime.start.p0(i64 24, ptr %10) #13
  %11 = load i32, ptr %5, align 4, !tbaa !11
  %12 = icmp eq i32 %11, 0
  br i1 %12, label %13, label %14

13:                                               ; preds = %3
  store ptr null, ptr %8, align 8, !tbaa !9
  br label %49

14:                                               ; preds = %3
  %15 = load i32, ptr %5, align 4, !tbaa !11
  %16 = icmp eq i32 %15, 256
  br i1 %16, label %26, label %17

17:                                               ; preds = %14
  %18 = load i32, ptr %5, align 4, !tbaa !11
  %19 = icmp eq i32 %18, 258
  br i1 %19, label %26, label %20

20:                                               ; preds = %17
  %21 = load i32, ptr %5, align 4, !tbaa !11
  %22 = icmp eq i32 %21, 257
  br i1 %22, label %26, label %23

23:                                               ; preds = %20
  %24 = load i32, ptr %5, align 4, !tbaa !11
  %25 = icmp sge i32 %24, 269
  br i1 %25, label %26, label %44

26:                                               ; preds = %23, %20, %17, %14
  %27 = load ptr, ptr %4, align 8, !tbaa !20
  %28 = getelementptr inbounds nuw %struct.CPState, ptr %27, i32 0, i32 6
  %29 = getelementptr inbounds nuw %struct.SBuf, ptr %28, i32 0, i32 0
  %30 = load ptr, ptr %29, align 8, !tbaa !79
  %31 = load ptr, ptr %4, align 8, !tbaa !20
  %32 = getelementptr inbounds nuw %struct.CPState, ptr %31, i32 0, i32 6
  %33 = getelementptr inbounds nuw %struct.SBuf, ptr %32, i32 0, i32 2
  %34 = load ptr, ptr %33, align 8, !tbaa !78
  %35 = icmp eq ptr %30, %34
  br i1 %35, label %36, label %38

36:                                               ; preds = %26
  %37 = load ptr, ptr %4, align 8, !tbaa !20
  call void @cp_save(ptr noundef %37, i32 noundef 36)
  br label %38

38:                                               ; preds = %36, %26
  %39 = load ptr, ptr %4, align 8, !tbaa !20
  call void @cp_save(ptr noundef %39, i32 noundef 0)
  %40 = load ptr, ptr %4, align 8, !tbaa !20
  %41 = getelementptr inbounds nuw %struct.CPState, ptr %40, i32 0, i32 6
  %42 = getelementptr inbounds nuw %struct.SBuf, ptr %41, i32 0, i32 2
  %43 = load ptr, ptr %42, align 8, !tbaa !78
  store ptr %43, ptr %8, align 8, !tbaa !9
  br label %48

44:                                               ; preds = %23
  %45 = load ptr, ptr %4, align 8, !tbaa !20
  %46 = load i32, ptr %5, align 4, !tbaa !11
  %47 = call ptr @cp_tok2str(ptr noundef %45, i32 noundef %46)
  store ptr %47, ptr %8, align 8, !tbaa !9
  br label %48

48:                                               ; preds = %44, %38
  br label %49

49:                                               ; preds = %48, %13
  %50 = load ptr, ptr %4, align 8, !tbaa !20
  %51 = getelementptr inbounds nuw %struct.CPState, ptr %50, i32 0, i32 7
  %52 = load ptr, ptr %51, align 8, !tbaa !43
  store ptr %52, ptr %9, align 8, !tbaa !33
  %53 = getelementptr inbounds [1 x %struct.__va_list_tag], ptr %10, i64 0, i64 0
  call void @llvm.va_start.p0(ptr %53)
  %54 = load ptr, ptr %9, align 8, !tbaa !33
  %55 = load ptr, ptr @lj_err_allmsg, align 8, !tbaa !9
  %56 = load i32, ptr %6, align 4, !tbaa !11
  %57 = sext i32 %56 to i64
  %58 = getelementptr inbounds i8, ptr %55, i64 %57
  %59 = getelementptr inbounds [1 x %struct.__va_list_tag], ptr %10, i64 0, i64 0
  %60 = call ptr @lj_strfmt_pushvf(ptr noundef %54, ptr noundef %58, ptr noundef %59)
  store ptr %60, ptr %7, align 8, !tbaa !9
  %61 = getelementptr inbounds [1 x %struct.__va_list_tag], ptr %10, i64 0, i64 0
  call void @llvm.va_end.p0(ptr %61)
  %62 = load ptr, ptr %8, align 8, !tbaa !9
  %63 = icmp ne ptr %62, null
  br i1 %63, label %64, label %71

64:                                               ; preds = %49
  %65 = load ptr, ptr %9, align 8, !tbaa !33
  %66 = load ptr, ptr @lj_err_allmsg, align 8, !tbaa !9
  %67 = getelementptr inbounds i8, ptr %66, i64 2178
  %68 = load ptr, ptr %7, align 8, !tbaa !9
  %69 = load ptr, ptr %8, align 8, !tbaa !9
  %70 = call ptr (ptr, ptr, ...) @lj_strfmt_pushf(ptr noundef %65, ptr noundef %67, ptr noundef %68, ptr noundef %69)
  store ptr %70, ptr %7, align 8, !tbaa !9
  br label %71

71:                                               ; preds = %64, %49
  %72 = load ptr, ptr %4, align 8, !tbaa !20
  %73 = getelementptr inbounds nuw %struct.CPState, ptr %72, i32 0, i32 11
  %74 = load i32, ptr %73, align 8, !tbaa !53
  %75 = icmp sgt i32 %74, 1
  br i1 %75, label %76, label %83

76:                                               ; preds = %71
  %77 = load ptr, ptr %9, align 8, !tbaa !33
  %78 = load ptr, ptr %7, align 8, !tbaa !9
  %79 = load ptr, ptr %4, align 8, !tbaa !20
  %80 = getelementptr inbounds nuw %struct.CPState, ptr %79, i32 0, i32 11
  %81 = load i32, ptr %80, align 8, !tbaa !53
  %82 = call ptr (ptr, ptr, ...) @lj_strfmt_pushf(ptr noundef %77, ptr noundef @.str, ptr noundef %78, i32 noundef %81)
  store ptr %82, ptr %7, align 8, !tbaa !9
  br label %83

83:                                               ; preds = %76, %71
  %84 = load ptr, ptr %9, align 8, !tbaa !33
  %85 = load ptr, ptr %7, align 8, !tbaa !9
  call void @lj_err_callermsg(ptr noundef %84, ptr noundef %85) #15
  unreachable
}