; Function Attrs: noreturn nounwind uwtable
define internal void @cp_errmsg(ptr noundef %0, i32 noundef %1, i32 noundef range(i32 537, 3511) %2, ...) unnamed_addr #8 {
  %4 = alloca [1 x %struct.__va_list_tag], align 16
  call void @llvm.lifetime.start.p0(i64 24, ptr nonnull %4) #15
  %5 = icmp eq i32 %1, 0
  br i1 %5, label %cp_tok2str.exit, label %6

6:                                                ; preds = %3
  %7 = icmp sgt i32 %1, 268
  %.off = add i32 %1, -256
  %switch = icmp ult i32 %.off, 3
  %or.cond = or i1 %7, %switch
  br i1 %or.cond, label %8, label %38

8:                                                ; preds = %6
  %9 = getelementptr inbounds nuw i8, ptr %0, i64 40
  %10 = load ptr, ptr %9, align 8, !tbaa !104
  %11 = getelementptr inbounds nuw i8, ptr %0, i64 56
  %12 = load ptr, ptr %11, align 8, !tbaa !99
  %13 = icmp eq ptr %10, %12
  br i1 %13, label %14, label %25

14:                                               ; preds = %8
  %15 = getelementptr inbounds nuw i8, ptr %0, i64 48
  %16 = load ptr, ptr %15, align 8, !tbaa !45
  %17 = ptrtoint ptr %16 to i64
  %18 = ptrtoint ptr %10 to i64
  %19 = sub i64 %17, %18
  %20 = and i64 %19, 4294967295
  %21 = icmp eq i64 %20, 0
  br i1 %21, label %22, label %lj_buf_more.exit33, !prof !63

22:                                               ; preds = %14
  %23 = tail call ptr @lj_buf_more2(ptr noundef nonnull %9, i32 noundef 1) #15
  br label %lj_buf_more.exit33

lj_buf_more.exit33:                               ; preds = %14, %22
  %.0.i32 = phi ptr [ %23, %22 ], [ %10, %14 ]
  %24 = getelementptr inbounds nuw i8, ptr %.0.i32, i64 1
  store i8 36, ptr %.0.i32, align 1, !tbaa !4
  store ptr %24, ptr %9, align 8, !tbaa !97
  br label %25

25:                                               ; preds = %lj_buf_more.exit33, %8
  %26 = phi ptr [ %24, %lj_buf_more.exit33 ], [ %10, %8 ]
  %27 = getelementptr inbounds nuw i8, ptr %0, i64 48
  %28 = load ptr, ptr %27, align 8, !tbaa !45
  %29 = ptrtoint ptr %28 to i64
  %30 = ptrtoint ptr %26 to i64
  %31 = sub i64 %29, %30
  %32 = and i64 %31, 4294967295
  %33 = icmp eq i64 %32, 0
  br i1 %33, label %34, label %lj_buf_more.exit, !prof !63

34:                                               ; preds = %25
  %35 = tail call ptr @lj_buf_more2(ptr noundef nonnull %9, i32 noundef 1) #15
  br label %lj_buf_more.exit

lj_buf_more.exit:                                 ; preds = %25, %34
  %.0.i = phi ptr [ %35, %34 ], [ %26, %25 ]
  %36 = getelementptr inbounds nuw i8, ptr %.0.i, i64 1
  store i8 0, ptr %.0.i, align 1, !tbaa !4
  store ptr %36, ptr %9, align 8, !tbaa !97
  %37 = load ptr, ptr %11, align 8, !tbaa !99
  br label %cp_tok2str.exit

38:                                               ; preds = %6
  %39 = icmp sgt i32 %1, 255
  br i1 %39, label %40, label %44

40:                                               ; preds = %38
  %41 = zext nneg i32 %.off to i64
  %42 = getelementptr inbounds nuw [14 x ptr], ptr @ctoknames, i64 0, i64 %41
  %43 = load ptr, ptr %42, align 8, !tbaa !111
  br label %cp_tok2str.exit

44:                                               ; preds = %38
  %45 = sext i32 %1 to i64
  %46 = getelementptr inbounds i8, ptr getelementptr inbounds nuw (i8, ptr @lj_char_bits, i64 1), i64 %45
  %47 = load i8, ptr %46, align 1, !tbaa !4
  %48 = and i8 %47, 1
  %.not.i = icmp eq i8 %48, 0
  %49 = getelementptr inbounds nuw i8, ptr %0, i64 72
  %50 = load ptr, ptr %49, align 8, !tbaa !38
  br i1 %.not.i, label %51, label %53

51:                                               ; preds = %44
  %52 = tail call ptr (ptr, ptr, ...) @lj_strfmt_pushf(ptr noundef %50, ptr noundef nonnull @.str.1, i32 noundef range(i32 1, 0) %1) #15
  br label %cp_tok2str.exit

53:                                               ; preds = %44
  %54 = tail call ptr (ptr, ptr, ...) @lj_strfmt_pushf(ptr noundef %50, ptr noundef nonnull @.str.2, i32 noundef range(i32 1, 0) %1) #15
  br label %cp_tok2str.exit

cp_tok2str.exit:                                  ; preds = %53, %51, %40, %3, %lj_buf_more.exit
  %.029 = phi ptr [ %37, %lj_buf_more.exit ], [ null, %3 ], [ %43, %40 ], [ %54, %53 ], [ %52, %51 ]
  %55 = getelementptr inbounds nuw i8, ptr %0, i64 72
  %56 = load ptr, ptr %55, align 8, !tbaa !38
  call void @llvm.va_start.p0(ptr nonnull %4)
  %57 = load ptr, ptr @lj_err_allmsg, align 8, !tbaa !111
  %58 = zext nneg i32 %2 to i64
  %59 = getelementptr inbounds nuw i8, ptr %57, i64 %58
  %60 = call ptr @lj_strfmt_pushvf(ptr noundef %56, ptr noundef nonnull %59, ptr noundef nonnull %4) #15
  call void @llvm.va_end.p0(ptr nonnull %4)
  %.not = icmp eq ptr %.029, null
  br i1 %.not, label %65, label %61

61:                                               ; preds = %cp_tok2str.exit
  %62 = load ptr, ptr @lj_err_allmsg, align 8, !tbaa !111
  %63 = getelementptr inbounds nuw i8, ptr %62, i64 2178
  %64 = call ptr (ptr, ptr, ...) @lj_strfmt_pushf(ptr noundef %56, ptr noundef nonnull %63, ptr noundef %60, ptr noundef nonnull %.029) #15
  br label %65

65:                                               ; preds = %61, %cp_tok2str.exit
  %.0 = phi ptr [ %64, %61 ], [ %60, %cp_tok2str.exit ]
  %66 = getelementptr inbounds nuw i8, ptr %0, i64 104
  %67 = load i32, ptr %66, align 8, !tbaa !57
  %68 = icmp sgt i32 %67, 1
  br i1 %68, label %69, label %71

69:                                               ; preds = %65
  %70 = call ptr (ptr, ptr, ...) @lj_strfmt_pushf(ptr noundef %56, ptr noundef nonnull @.str, ptr noundef %.0, i32 noundef %67) #15
  br label %71

71:                                               ; preds = %69, %65
  %.1 = phi ptr [ %70, %69 ], [ %.0, %65 ]
  call void @lj_err_callermsg(ptr noundef %56, ptr noundef %.1) #17
  unreachable
}